target datalayout = "e-m:e-p270:32:32-p271:32:32-p272:64:64-i64:64-i128:128-f80:128-n8:16:32:64-S128"
target triple = "x86_64-pc-linux-gnu"

%struct.AVRational = type { i32, i32 }
%struct.AVFilterContext = type { ptr, ptr, ptr, ptr, ptr, i32, ptr, ptr, i32, ptr, ptr, i32, i32, ptr, ptr, ptr, ptr, i32, ptr, i32, i32 }
%struct.MovieContext = type { ptr, i64, double, ptr, ptr, ptr, i32, i32, i64, i64, i32, ptr, ptr, i32, i32, ptr, ptr, ptr }
%struct.AVStream = type { ptr, i32, i32, ptr, ptr, %struct.AVRational, i64, i64, i64, i32, i32, %struct.AVRational, ptr, %struct.AVRational, %struct.AVPacket, i32, %struct.AVRational, i32 }
%struct.AVPacket = type { ptr, i64, i64, ptr, i32, i32, i32, ptr, i32, i64, i64, ptr, ptr, %struct.AVRational }
%struct.MovieStream = type { ptr, ptr, ptr, i64, i64, ptr, i32 }
%struct.AVCodecParameters = type { i32, i32, i32, ptr, i32, ptr, i32, i32, i64, i32, i32, i32, i32, i32, i32, %struct.AVRational, %struct.AVRational, i32, i32, i32, i32, i32, i32, i32, %struct.AVChannelLayout, i32, i32, i32, i32, i32, i32 }
%struct.AVChannelLayout = type { i32, i32, %union.anon.2, ptr }
%union.anon.2 = type { i64 }
%struct.AVFilterFormatsConfig = type { ptr, ptr, ptr, ptr, ptr }

@__const.movie_query_formats.list = private unnamed_addr constant [2 x i32] [i32 0, i32 -1], align 4

; Function Attrs: nounwind uwtable
define internal i32 @movie_query_formats(ptr noundef %0, ptr noundef %1, ptr noundef %2) #1 {
  %4 = alloca i32, align 4
  %5 = alloca ptr, align 8
  %6 = alloca ptr, align 8
  %7 = alloca ptr, align 8
  %8 = alloca ptr, align 8
  %9 = alloca [2 x i32], align 4
  %10 = alloca [2 x %struct.AVChannelLayout], align 16
  %11 = alloca i32, align 4
  %12 = alloca i32, align 4
  %13 = alloca ptr, align 8
  %14 = alloca ptr, align 8
  %15 = alloca ptr, align 8
  %16 = alloca i32, align 4
  store ptr %0, ptr %5, align 8, !tbaa !4
  store ptr %1, ptr %6, align 8, !tbaa !103
  store ptr %2, ptr %7, align 8, !tbaa !103
  call void @llvm.lifetime.start.p0(i64 8, ptr %8) #11
  %17 = load ptr, ptr %5, align 8, !tbaa !4
  %18 = getelementptr inbounds nuw %struct.AVFilterContext, ptr %17, i32 0, i32 9
  %19 = load ptr, ptr %18, align 8, !tbaa !9
  store ptr %19, ptr %8, align 8, !tbaa !22
  call void @llvm.lifetime.start.p0(i64 8, ptr %9) #11
  call void @llvm.memcpy.p0.p0.i64(ptr align 4 %9, ptr align 4 @__const.movie_query_formats.list, i64 8, i1 false)
  call void @llvm.lifetime.start.p0(i64 48, ptr %10) #11
  call void @llvm.memset.p0.i64(ptr align 16 %10, i8 0, i64 48, i1 false)
  call void @llvm.lifetime.start.p0(i64 4, ptr %11) #11
  call void @llvm.lifetime.start.p0(i64 4, ptr %12) #11
  store i32 0, ptr %11, align 4, !tbaa !26
  br label %20

20:                                               ; preds = %129, %3
  %21 = load i32, ptr %11, align 4, !tbaa !26
  %22 = load ptr, ptr %5, align 8, !tbaa !4
  %23 = getelementptr inbounds nuw %struct.AVFilterContext, ptr %22, i32 0, i32 8
  %24 = load i32, ptr %23, align 8, !tbaa !101
  %25 = icmp ult i32 %21, %24
  br i1 %25, label %26, label %132

26:                                               ; preds = %20
  call void @llvm.lifetime.start.p0(i64 8, ptr %13) #11
  %27 = load ptr, ptr %8, align 8, !tbaa !22
  %28 = getelementptr inbounds nuw %struct.MovieContext, ptr %27, i32 0, i32 15
  %29 = load ptr, ptr %28, align 8, !tbaa !73
  %30 = load i32, ptr %11, align 4, !tbaa !26
  %31 = sext i32 %30 to i64
  %32 = getelementptr inbounds %struct.MovieStream, ptr %29, i64 %31
  store ptr %32, ptr %13, align 8, !tbaa !105
  call void @llvm.lifetime.start.p0(i64 8, ptr %14) #11
  %33 = load ptr, ptr %13, align 8, !tbaa !105
  %34 = getelementptr inbounds nuw %struct.MovieStream, ptr %33, i32 0, i32 1
  %35 = load ptr, ptr %34, align 8, !tbaa !74
  %36 = getelementptr inbounds nuw %struct.AVStream, ptr %35, i32 0, i32 3
  %37 = load ptr, ptr %36, align 8, !tbaa !89
  store ptr %37, ptr %14, align 8, !tbaa !106
  call void @llvm.lifetime.start.p0(i64 8, ptr %15) #11
  %38 = load ptr, ptr %7, align 8, !tbaa !103
  %39 = load i32, ptr %11, align 4, !tbaa !26
  %40 = sext i32 %39 to i64
  %41 = getelementptr inbounds ptr, ptr %38, i64 %40
  %42 = load ptr, ptr %41, align 8, !tbaa !107
  store ptr %42, ptr %15, align 8, !tbaa !107
  %43 = load ptr, ptr %14, align 8, !tbaa !106
  %44 = getelementptr inbounds nuw %struct.AVCodecParameters, ptr %43, i32 0, i32 0
  %45 = load i32, ptr %44, align 8, !tbaa !90
  switch i32 %45, label %125 [
    i32 0, label %46
    i32 1, label %86
  ]

46:                                               ; preds = %26
  %47 = load ptr, ptr %14, align 8, !tbaa !106
  %48 = getelementptr inbounds nuw %struct.AVCodecParameters, ptr %47, i32 0, i32 7
  %49 = load i32, ptr %48, align 4, !tbaa !109
  %50 = getelementptr inbounds [2 x i32], ptr %9, i64 0, i64 0
  store i32 %49, ptr %50, align 4, !tbaa !26
  %51 = getelementptr inbounds [2 x i32], ptr %9, i64 0, i64 0
  %52 = call ptr @ff_make_format_list(ptr noundef %51)
  %53 = load ptr, ptr %15, align 8, !tbaa !107
  %54 = getelementptr inbounds nuw %struct.AVFilterFormatsConfig, ptr %53, i32 0, i32 0
  %55 = call i32 @ff_formats_ref(ptr noundef %52, ptr noundef %54)
  store i32 %55, ptr %12, align 4, !tbaa !26
  %56 = icmp slt i32 %55, 0
  br i1 %56, label %57, label %59

57:                                               ; preds = %46
  %58 = load i32, ptr %12, align 4, !tbaa !26
  store i32 %58, ptr %4, align 4
  store i32 1, ptr %16, align 4
  br label %126

59:                                               ; preds = %46
  %60 = load ptr, ptr %14, align 8, !tbaa !106
  %61 = getelementptr inbounds nuw %struct.AVCodecParameters, ptr %60, i32 0, i32 21
  %62 = load i32, ptr %61, align 8, !tbaa !110
  %63 = getelementptr inbounds [2 x i32], ptr %9, i64 0, i64 0
  store i32 %62, ptr %63, align 4, !tbaa !26
  %64 = getelementptr inbounds [2 x i32], ptr %9, i64 0, i64 0
  %65 = call ptr @ff_make_format_list(ptr noundef %64)
  %66 = load ptr, ptr %15, align 8, !tbaa !107
  %67 = getelementptr inbounds nuw %struct.AVFilterFormatsConfig, ptr %66, i32 0, i32 3
  %68 = call i32 @ff_formats_ref(ptr noundef %65, ptr noundef %67)
  store i32 %68, ptr %12, align 4, !tbaa !26
  %69 = icmp slt i32 %68, 0
  br i1 %69, label %70, label %72

70:                                               ; preds = %59
  %71 = load i32, ptr %12, align 4, !tbaa !26
  store i32 %71, ptr %4, align 4
  store i32 1, ptr %16, align 4
  br label %126

72:                                               ; preds = %59
  %73 = load ptr, ptr %14, align 8, !tbaa !106
  %74 = getelementptr inbounds nuw %struct.AVCodecParameters, ptr %73, i32 0, i32 18
  %75 = load i32, ptr %74, align 4, !tbaa !111
  %76 = getelementptr inbounds [2 x i32], ptr %9, i64 0, i64 0
  store i32 %75, ptr %76, align 4, !tbaa !26
  %77 = getelementptr inbounds [2 x i32], ptr %9, i64 0, i64 0
  %78 = call ptr @ff_make_format_list(ptr noundef %77)
  %79 = load ptr, ptr %15, align 8, !tbaa !107
  %80 = getelementptr inbounds nuw %struct.AVFilterFormatsConfig, ptr %79, i32 0, i32 4
  %81 = call i32 @ff_formats_ref(ptr noundef %78, ptr noundef %80)
  store i32 %81, ptr %12, align 4, !tbaa !26
  %82 = icmp slt i32 %81, 0
  br i1 %82, label %83, label %85

83:                                               ; preds = %72
  %84 = load i32, ptr %12, align 4, !tbaa !26
  store i32 %84, ptr %4, align 4
  store i32 1, ptr %16, align 4
  br label %126

85:                                               ; preds = %72
  br label %125

86:                                               ; preds = %26
  %87 = load ptr, ptr %14, align 8, !tbaa !106
  %88 = getelementptr inbounds nuw %struct.AVCodecParameters, ptr %87, i32 0, i32 7
  %89 = load i32, ptr %88, align 4, !tbaa !109
  %90 = getelementptr inbounds [2 x i32], ptr %9, i64 0, i64 0
  store i32 %89, ptr %90, align 4, !tbaa !26
  %91 = getelementptr inbounds [2 x i32], ptr %9, i64 0, i64 0
  %92 = call ptr @ff_make_format_list(ptr noundef %91)
  %93 = load ptr, ptr %15, align 8, !tbaa !107
  %94 = getelementptr inbounds nuw %struct.AVFilterFormatsConfig, ptr %93, i32 0, i32 0
  %95 = call i32 @ff_formats_ref(ptr noundef %92, ptr noundef %94)
  store i32 %95, ptr %12, align 4, !tbaa !26
  %96 = icmp slt i32 %95, 0
  br i1 %96, label %97, label %99

97:                                               ; preds = %86
  %98 = load i32, ptr %12, align 4, !tbaa !26
  store i32 %98, ptr %4, align 4
  store i32 1, ptr %16, align 4
  br label %126

99:                                               ; preds = %86
  %100 = load ptr, ptr %14, align 8, !tbaa !106
  %101 = getelementptr inbounds nuw %struct.AVCodecParameters, ptr %100, i32 0, i32 25
  %102 = load i32, ptr %101, align 8, !tbaa !112
  %103 = getelementptr inbounds [2 x i32], ptr %9, i64 0, i64 0
  store i32 %102, ptr %103, align 4, !tbaa !26
  %104 = getelementptr inbounds [2 x i32], ptr %9, i64 0, i64 0
  %105 = call ptr @ff_make_format_list(ptr noundef %104)
  %106 = load ptr, ptr %15, align 8, !tbaa !107
  %107 = getelementptr inbounds nuw %struct.AVFilterFormatsConfig, ptr %106, i32 0, i32 1
  %108 = call i32 @ff_formats_ref(ptr noundef %105, ptr noundef %107)
  store i32 %108, ptr %12, align 4, !tbaa !26
  %109 = icmp slt i32 %108, 0
  br i1 %109, label %110, label %112

110:                                              ; preds = %99
  %111 = load i32, ptr %12, align 4, !tbaa !26
  store i32 %111, ptr %4, align 4
  store i32 1, ptr %16, align 4
  br label %126

112:                                              ; preds = %99
  %113 = getelementptr inbounds [2 x %struct.AVChannelLayout], ptr %10, i64 0, i64 0
  %114 = load ptr, ptr %14, align 8, !tbaa !106
  %115 = getelementptr inbounds nuw %struct.AVCodecParameters, ptr %114, i32 0, i32 24
  call void @llvm.memcpy.p0.p0.i64(ptr align 16 %113, ptr align 8 %115, i64 24, i1 false), !tbaa.struct !113
  %116 = getelementptr inbounds [2 x %struct.AVChannelLayout], ptr %10, i64 0, i64 0
  %117 = call ptr @ff_make_channel_layout_list(ptr noundef %116)
  %118 = load ptr, ptr %15, align 8, !tbaa !107
  %119 = getelementptr inbounds nuw %struct.AVFilterFormatsConfig, ptr %118, i32 0, i32 2
  %120 = call i32 @ff_channel_layouts_ref(ptr noundef %117, ptr noundef %119)
  store i32 %120, ptr %12, align 4, !tbaa !26
  %121 = icmp slt i32 %120, 0
  br i1 %121, label %122, label %124

122:                                              ; preds = %112
  %123 = load i32, ptr %12, align 4, !tbaa !26
  store i32 %123, ptr %4, align 4
  store i32 1, ptr %16, align 4
  br label %126

124:                                              ; preds = %112
  br label %125

125:                                              ; preds = %26, %124, %85
  store i32 0, ptr %16, align 4
  br label %126

126:                                              ; preds = %125, %122, %110, %97, %83, %70, %57
  call void @llvm.lifetime.end.p0(i64 8, ptr %15) #11
  call void @llvm.lifetime.end.p0(i64 8, ptr %14) #11
  call void @llvm.lifetime.end.p0(i64 8, ptr %13) #11
  %127 = load i32, ptr %16, align 4
  switch i32 %127, label %133 [
    i32 0, label %128
  ]

128:                                              ; preds = %126
  br label %129

129:                                              ; preds = %128
  %130 = load i32, ptr %11, align 4, !tbaa !26
  %131 = add nsw i32 %130, 1
  store i32 %131, ptr %11, align 4, !tbaa !26
  br label %20, !llvm.loop !115

132:                                              ; preds = %20
  store i32 0, ptr %4, align 4
  store i32 1, ptr %16, align 4
  br label %133

133:                                              ; preds = %132, %126
  call void @llvm.lifetime.end.p0(i64 4, ptr %12) #11
  call void @llvm.lifetime.end.p0(i64 4, ptr %11) #11
  call void @llvm.lifetime.end.p0(i64 48, ptr %10) #11
  call void @llvm.lifetime.end.p0(i64 8, ptr %9) #11
  call void @llvm.lifetime.end.p0(i64 8, ptr %8) #11
  %134 = load i32, ptr %4, align 4
  ret i32 %134
}