; Function Attrs: nounwind uwtable
define internal range(i32 -2147483648, 1) i32 @movie_query_formats(ptr noundef readonly captures(none) %0, ptr readnone captures(none) %1, ptr noundef readonly captures(none) %2) #1 {
  %4 = alloca [2 x i32], align 8
  %5 = alloca [2 x %struct.AVChannelLayout], align 16
  %6 = getelementptr inbounds nuw i8, ptr %0, i64 72
  %7 = load ptr, ptr %6, align 8, !tbaa !4
  call void @llvm.lifetime.start.p0(i64 8, ptr nonnull %4) #13
  store i64 -4294967296, ptr %4, align 8
  call void @llvm.lifetime.start.p0(i64 48, ptr nonnull %5) #13
  call void @llvm.memset.p0.i64(ptr noundef nonnull align 16 dereferenceable(48) %5, i8 0, i64 48, i1 false)
  %8 = getelementptr inbounds nuw i8, ptr %0, i64 64
  %9 = load i32, ptr %8, align 8, !tbaa !94
  %.not = icmp eq i32 %9, 0
  br i1 %.not, label %.thread, label %.lr.ph

.lr.ph:                                           ; preds = %3
  %10 = getelementptr inbounds nuw i8, ptr %7, i64 104
  br label %11

11:                                               ; preds = %.lr.ph, %59
  %indvars.iv = phi i64 [ 0, %.lr.ph ], [ %indvars.iv.next, %59 ]
  %12 = load ptr, ptr %10, align 8, !tbaa !66
  %13 = getelementptr inbounds nuw %struct.MovieStream, ptr %12, i64 %indvars.iv, i32 1
  %14 = load ptr, ptr %13, align 8, !tbaa !74
  %15 = getelementptr inbounds nuw i8, ptr %14, i64 16
  %16 = load ptr, ptr %15, align 8, !tbaa !70
  %17 = getelementptr inbounds nuw ptr, ptr %2, i64 %indvars.iv
  %18 = load ptr, ptr %17, align 8, !tbaa !96
  %19 = load i32, ptr %16, align 8, !tbaa !71
  switch i32 %19, label %59 [
    i32 0, label %20
    i32 1, label %40
  ]

20:                                               ; preds = %11
  %21 = getelementptr inbounds nuw i8, ptr %16, i64 44
  %22 = load i32, ptr %21, align 4, !tbaa !98
  store i32 %22, ptr %4, align 8, !tbaa !68
  %23 = call ptr @ff_make_format_list(ptr noundef nonnull %4) #13
  %24 = call i32 @ff_formats_ref(ptr noundef %23, ptr noundef %18) #13
  %25 = icmp slt i32 %24, 0
  br i1 %25, label %.thread, label %26

26:                                               ; preds = %20
  %27 = getelementptr inbounds nuw i8, ptr %16, i64 112
  %28 = load i32, ptr %27, align 8, !tbaa !99
  store i32 %28, ptr %4, align 8, !tbaa !68
  %29 = call ptr @ff_make_format_list(ptr noundef nonnull %4) #13
  %30 = getelementptr inbounds nuw i8, ptr %18, i64 24
  %31 = call i32 @ff_formats_ref(ptr noundef %29, ptr noundef nonnull %30) #13
  %32 = icmp slt i32 %31, 0
  br i1 %32, label %.thread, label %33

33:                                               ; preds = %26
  %34 = getelementptr inbounds nuw i8, ptr %16, i64 100
  %35 = load i32, ptr %34, align 4, !tbaa !100
  store i32 %35, ptr %4, align 8, !tbaa !68
  %36 = call ptr @ff_make_format_list(ptr noundef nonnull %4) #13
  %37 = getelementptr inbounds nuw i8, ptr %18, i64 32
  %38 = call i32 @ff_formats_ref(ptr noundef %36, ptr noundef nonnull %37) #13
  %39 = icmp slt i32 %38, 0
  br i1 %39, label %.thread, label %59

40:                                               ; preds = %11
  %41 = getelementptr inbounds nuw i8, ptr %16, i64 44
  %42 = load i32, ptr %41, align 4, !tbaa !98
  store i32 %42, ptr %4, align 8, !tbaa !68
  %43 = call ptr @ff_make_format_list(ptr noundef nonnull %4) #13
  %44 = call i32 @ff_formats_ref(ptr noundef %43, ptr noundef %18) #13
  %45 = icmp slt i32 %44, 0
  br i1 %45, label %.thread, label %46

46:                                               ; preds = %40
  %47 = getelementptr inbounds nuw i8, ptr %16, i64 152
  %48 = load i32, ptr %47, align 8, !tbaa !101
  store i32 %48, ptr %4, align 8, !tbaa !68
  %49 = call ptr @ff_make_format_list(ptr noundef nonnull %4) #13
  %50 = getelementptr inbounds nuw i8, ptr %18, i64 8
  %51 = call i32 @ff_formats_ref(ptr noundef %49, ptr noundef nonnull %50) #13
  %52 = icmp slt i32 %51, 0
  br i1 %52, label %.thread, label %53

53:                                               ; preds = %46
  %54 = getelementptr inbounds nuw i8, ptr %16, i64 128
  call void @llvm.memcpy.p0.p0.i64(ptr noundef nonnull align 16 dereferenceable(24) %5, ptr noundef nonnull align 8 dereferenceable(24) %54, i64 24, i1 false), !tbaa.struct !102
  %55 = call ptr @ff_make_channel_layout_list(ptr noundef nonnull %5) #13
  %56 = getelementptr inbounds nuw i8, ptr %18, i64 16
  %57 = call i32 @ff_channel_layouts_ref(ptr noundef %55, ptr noundef nonnull %56) #13
  %58 = icmp slt i32 %57, 0
  br i1 %58, label %.thread, label %59

59:                                               ; preds = %53, %33, %11
  %indvars.iv.next = add nuw nsw i64 %indvars.iv, 1
  %60 = load i32, ptr %8, align 8, !tbaa !94
  %61 = zext i32 %60 to i64
  %62 = icmp samesign ult i64 %indvars.iv.next, %61
  br i1 %62, label %11, label %.thread, !llvm.loop !104

.thread:                                          ; preds = %59, %20, %26, %33, %40, %46, %53, %3
  %.2 = phi i32 [ 0, %3 ], [ %57, %53 ], [ %51, %46 ], [ %44, %40 ], [ %38, %33 ], [ %31, %26 ], [ %24, %20 ], [ 0, %59 ]
  call void @llvm.lifetime.end.p0(i64 48, ptr nonnull %5) #13
  call void @llvm.lifetime.end.p0(i64 8, ptr nonnull %4) #13
  ret i32 %.2
}